   1              		.syntax unified
   2              		.cpu cortex-m3
   3              		.fpu softvfp
   4              		.eabi_attribute 20, 1
   5              		.eabi_attribute 21, 1
   6              		.eabi_attribute 23, 3
   7              		.eabi_attribute 24, 1
   8              		.eabi_attribute 25, 1
   9              		.eabi_attribute 26, 1
  10              		.eabi_attribute 30, 4
  11              		.eabi_attribute 18, 4
  12              		.thumb
  13              		.file	"stm32f10x_it.c"
  23              	.Ltext0:
  24              		.file 1 "stm32f10x_it.c"
 18696              		.align	1
 18697              		.global	NMIException
 18698              		.thumb
 18699              		.thumb_func
 18701              	NMIException:
 18702              	.LFB27:
   0:stm32f10x_it.c **** /******************** (C) COPYRIGHT 2008 STMicroelectronics ********************
   1:stm32f10x_it.c **** * File Name          : stm32f10x_it.c
   2:stm32f10x_it.c **** * Author             : MCD Application Team
   3:stm32f10x_it.c **** * Version            : V2.2.1
   4:stm32f10x_it.c **** * Date               : 09/22/2008
   5:stm32f10x_it.c **** * Description        : Main Interrupt Service Routines.
   6:stm32f10x_it.c **** *                      This file provides template for all exceptions handler
   7:stm32f10x_it.c **** *                      and peripherals interrupt service routine.
   8:stm32f10x_it.c **** ********************************************************************************
   9:stm32f10x_it.c **** * THE PRESENT FIRMWARE WHICH IS FOR GUIDANCE ONLY AIMS AT PROVIDING CUSTOMERS
  10:stm32f10x_it.c **** * WITH CODING INFORMATION REGARDING THEIR PRODUCTS IN ORDER FOR THEM TO SAVE TIME.
  11:stm32f10x_it.c **** * AS A RESULT, STMICROELECTRONICS SHALL NOT BE HELD LIABLE FOR ANY DIRECT,
  12:stm32f10x_it.c **** * INDIRECT OR CONSEQUENTIAL DAMAGES WITH RESPECT TO ANY CLAIMS ARISING FROM THE
  13:stm32f10x_it.c **** * CONTENT OF SUCH FIRMWARE AND/OR THE USE MADE BY CUSTOMERS OF THE CODING
  14:stm32f10x_it.c **** * INFORMATION CONTAINED HEREIN IN CONNECTION WITH THEIR PRODUCTS.
  15:stm32f10x_it.c **** *******************************************************************************/
  16:stm32f10x_it.c **** 
  17:stm32f10x_it.c **** /* Includes ------------------------------------------------------------------*/
  18:stm32f10x_it.c **** #include "stm32f10x_it.h"
  19:stm32f10x_it.c **** #include <stm32f10x_usart.h>
  20:stm32f10x_it.c **** 
  21:stm32f10x_it.c **** #include "global.h"
  22:stm32f10x_it.c **** 
  23:stm32f10x_it.c **** /* Private typedef -----------------------------------------------------------*/
  24:stm32f10x_it.c **** /* Private define ------------------------------------------------------------*/
  25:stm32f10x_it.c **** /* Private macro -------------------------------------------------------------*/
  26:stm32f10x_it.c **** /* Private variables ---------------------------------------------------------*/
  27:stm32f10x_it.c **** /* Private function prototypes -----------------------------------------------*/
  28:stm32f10x_it.c **** /* Private functions ---------------------------------------------------------*/
  29:stm32f10x_it.c **** 
  30:stm32f10x_it.c **** /*******************************************************************************
  31:stm32f10x_it.c **** * Function Name  : NMIException
  32:stm32f10x_it.c **** * Description    : This function handles NMI exception.
  33:stm32f10x_it.c **** * Input          : None
  34:stm32f10x_it.c **** * Output         : None
  35:stm32f10x_it.c **** * Return         : None
  36:stm32f10x_it.c **** *******************************************************************************/
  37:stm32f10x_it.c **** void NMIException(void)
  38:stm32f10x_it.c **** {}
 18703              		.loc 1 39 0
 18704              		@ args = 0, pretend = 0, frame = 0
 18705              		@ frame_needed = 0, uses_anonymous_args = 0
 18706              		@ link register save eliminated.
 18707              		.loc 1 39 0
 18708 0000 7047     		bx	lr
 18709              	.LFE27:
 18711              		.section	.text.HardFaultException,"ax",%progbits
 18712              		.align	1
 18713              		.global	HardFaultException
 18714              		.thumb
 18715              		.thumb_func
 18717              	HardFaultException:
 18718              	.LFB28:
  39:stm32f10x_it.c **** 
  40:stm32f10x_it.c **** /*******************************************************************************
  41:stm32f10x_it.c **** * Function Name  : HardFaultException
  42:stm32f10x_it.c **** * Description    : This function handles Hard Fault exception.
  43:stm32f10x_it.c **** * Input          : None
  44:stm32f10x_it.c **** * Output         : None
  45:stm32f10x_it.c **** * Return         : None
  46:stm32f10x_it.c **** *******************************************************************************/
  47:stm32f10x_it.c **** void HardFaultException(void)
  48:stm32f10x_it.c **** {
 18719              		.loc 1 49 0
 18720              		@ args = 0, pretend = 0, frame = 0
 18721              		@ frame_needed = 0, uses_anonymous_args = 0
 18722              		@ link register save eliminated.
 18723              	.L3:
  49:stm32f10x_it.c ****   /* Go to infinite loop when Hard Fault exception occurs */
  50:stm32f10x_it.c ****   while (1)
  51:stm32f10x_it.c ****   {
  52:stm32f10x_it.c ****     asm volatile  ("nop");
 18724              		.loc 1 53 0 discriminator 1
 18725              	@ 53 "stm32f10x_it.c" 1
 18726 0000 00BF     		nop
 18727              	@ 0 "" 2
 18728              		.thumb
 18729 0002 FDE7     		b	.L3
 18730              	.LFE28:
 18732              		.section	.text.MemManageException,"ax",%progbits
 18733              		.align	1
 18734              		.global	MemManageException
 18735              		.thumb
 18736              		.thumb_func
 18738              	MemManageException:
 18739              	.LFB29:
  53:stm32f10x_it.c ****   }
  54:stm32f10x_it.c **** }
  55:stm32f10x_it.c **** 
  56:stm32f10x_it.c **** /*******************************************************************************
  57:stm32f10x_it.c **** * Function Name  : MemManageException
  58:stm32f10x_it.c **** * Description    : This function handles Memory Manage exception.
  59:stm32f10x_it.c **** * Input          : None
  60:stm32f10x_it.c **** * Output         : None
  61:stm32f10x_it.c **** * Return         : None
  62:stm32f10x_it.c **** *******************************************************************************/
  63:stm32f10x_it.c **** void MemManageException(void)
  64:stm32f10x_it.c **** {
 18740              		.loc 1 65 0
 18741              		@ args = 0, pretend = 0, frame = 0
 18742              		@ frame_needed = 0, uses_anonymous_args = 0
 18743              		@ link register save eliminated.
 18744              	.L5:
 18745 0000 FEE7     		b	.L5
 18746              	.LFE29:
 18748              		.section	.text.BusFaultException,"ax",%progbits
 18749              		.align	1
 18750              		.global	BusFaultException
 18751              		.thumb
 18752              		.thumb_func
 18754              	BusFaultException:
 18755              	.LFB30:
  65:stm32f10x_it.c ****   /* Go to infinite loop when Memory Manage exception occurs */
  66:stm32f10x_it.c ****   while (1)
  67:stm32f10x_it.c ****   {}
  68:stm32f10x_it.c **** }
  69:stm32f10x_it.c **** 
  70:stm32f10x_it.c **** /*******************************************************************************
  71:stm32f10x_it.c **** * Function Name  : BusFaultException
  72:stm32f10x_it.c **** * Description    : This function handles Bus Fault exception.
  73:stm32f10x_it.c **** * Input          : None
  74:stm32f10x_it.c **** * Output         : None
  75:stm32f10x_it.c **** * Return         : None
  76:stm32f10x_it.c **** *******************************************************************************/
  77:stm32f10x_it.c **** void BusFaultException(void)
  78:stm32f10x_it.c **** {
 18756              		.loc 1 79 0
 18757              		@ args = 0, pretend = 0, frame = 0
 18758              		@ frame_needed = 0, uses_anonymous_args = 0
 18759              		@ link register save eliminated.
 18760              	.L7:
 18761 0000 FEE7     		b	.L7
 18762              	.LFE30:
 18764              		.section	.text.UsageFaultException,"ax",%progbits
 18765              		.align	1
 18766              		.global	UsageFaultException
 18767              		.thumb
 18768              		.thumb_func
 18770              	UsageFaultException:
 18771              	.LFB31:
  79:stm32f10x_it.c ****   /* Go to infinite loop when Bus Fault exception occurs */
  80:stm32f10x_it.c ****   while (1)
  81:stm32f10x_it.c ****   {}
  82:stm32f10x_it.c **** }
  83:stm32f10x_it.c **** 
  84:stm32f10x_it.c **** /*******************************************************************************
  85:stm32f10x_it.c **** * Function Name  : UsageFaultException
  86:stm32f10x_it.c **** * Description    : This function handles Usage Fault exception.
  87:stm32f10x_it.c **** * Input          : None
  88:stm32f10x_it.c **** * Output         : None
  89:stm32f10x_it.c **** * Return         : None
  90:stm32f10x_it.c **** *******************************************************************************/
  91:stm32f10x_it.c **** void UsageFaultException(void)
  92:stm32f10x_it.c **** {
 18772              		.loc 1 93 0
 18773              		@ args = 0, pretend = 0, frame = 0
 18774              		@ frame_needed = 0, uses_anonymous_args = 0
 18775              		@ link register save eliminated.
 18776              	.L9:
 18777 0000 FEE7     		b	.L9
 18778              	.LFE31:
 18780              		.section	.text.DebugMonitor,"ax",%progbits
 18781              		.align	1
 18782              		.global	DebugMonitor
 18783              		.thumb
 18784              		.thumb_func
 18786              	DebugMonitor:
 18787              	.LFB32:
  93:stm32f10x_it.c ****   /* Go to infinite loop when Usage Fault exception occurs */
  94:stm32f10x_it.c ****   while (1)
  95:stm32f10x_it.c ****   {}
  96:stm32f10x_it.c **** }
  97:stm32f10x_it.c **** 
  98:stm32f10x_it.c **** /*******************************************************************************
  99:stm32f10x_it.c **** * Function Name  : DebugMonitor
 100:stm32f10x_it.c **** * Description    : This function handles Debug Monitor exception.
 101:stm32f10x_it.c **** * Input          : None
 102:stm32f10x_it.c **** * Output         : None
 103:stm32f10x_it.c **** * Return         : None
 104:stm32f10x_it.c **** *******************************************************************************/
 105:stm32f10x_it.c **** void DebugMonitor(void)
 106:stm32f10x_it.c **** {}
 18788              		.loc 1 107 0
 18789              		@ args = 0, pretend = 0, frame = 0
 18790              		@ frame_needed = 0, uses_anonymous_args = 0
 18791              		@ link register save eliminated.
 18792              		.loc 1 107 0
 18793 0000 7047     		bx	lr
 18794              	.LFE32:
 18796              		.section	.text.SVCHandler,"ax",%progbits
 18797              		.align	1
 18798              		.global	SVCHandler
 18799              		.thumb
 18800              		.thumb_func
 18802              	SVCHandler:
 18803              	.LFB33:
 107:stm32f10x_it.c **** 
 108:stm32f10x_it.c **** /*******************************************************************************
 109:stm32f10x_it.c **** * Function Name  : SVCHandler
 110:stm32f10x_it.c **** * Description    : This function handles SVCall exception.
 111:stm32f10x_it.c **** * Input          : None
 112:stm32f10x_it.c **** * Output         : None
 113:stm32f10x_it.c **** * Return         : None
 114:stm32f10x_it.c **** *******************************************************************************/
 115:stm32f10x_it.c **** void SVCHandler(void)
 116:stm32f10x_it.c **** {
 18804              		.loc 1 117 0
 18805              		@ args = 0, pretend = 0, frame = 0
 18806              		@ frame_needed = 0, uses_anonymous_args = 0
 18807              		@ link register save eliminated.
 117:stm32f10x_it.c **** }
 18808              		.loc 1 118 0
 18809 0000 7047     		bx	lr
 18810              	.LFE33:
 18812              		.section	.text.PendSVC,"ax",%progbits
 18813              		.align	1
 18814              		.global	PendSVC
 18815              		.thumb
 18816              		.thumb_func
 18818              	PendSVC:
 18819              	.LFB34:
 118:stm32f10x_it.c **** 
 119:stm32f10x_it.c **** /*******************************************************************************
 120:stm32f10x_it.c **** * Function Name  : PendSVC
 121:stm32f10x_it.c **** * Description    : This function handles PendSVC exception.
 122:stm32f10x_it.c **** * Input          : None
 123:stm32f10x_it.c **** * Output         : None
 124:stm32f10x_it.c **** * Return         : None
 125:stm32f10x_it.c **** *******************************************************************************/
 126:stm32f10x_it.c **** void PendSVC(void)
 127:stm32f10x_it.c **** {}
 18820              		.loc 1 128 0
 18821              		@ args = 0, pretend = 0, frame = 0
 18822              		@ frame_needed = 0, uses_anonymous_args = 0
 18823              		@ link register save eliminated.
 18824              		.loc 1 128 0
 18825 0000 7047     		bx	lr
 18826              	.LFE34:
 18828              		.section	.text.SysTickHandler,"ax",%progbits
 18829              		.align	1
 18830              		.global	SysTickHandler
 18831              		.thumb
 18832              		.thumb_func
 18834              	SysTickHandler:
 18835              	.LFB35:
 128:stm32f10x_it.c **** 
 129:stm32f10x_it.c **** /*******************************************************************************
 130:stm32f10x_it.c **** * Function Name  : SysTickHandler
 131:stm32f10x_it.c **** * Description    : This function handles SysTick Handler.
 132:stm32f10x_it.c **** * Input          : None
 133:stm32f10x_it.c **** * Output         : None
 134:stm32f10x_it.c **** * Return         : None
 135:stm32f10x_it.c **** *******************************************************************************/
 136:stm32f10x_it.c **** volatile uint32_t _sysTicks = 0;
 137:stm32f10x_it.c **** 
 138:stm32f10x_it.c **** void SysTickHandler(void) {
 18836              		.loc 1 139 0
 18837              		@ args = 0, pretend = 0, frame = 0
 18838              		@ frame_needed = 0, uses_anonymous_args = 0
 18839              		@ link register save eliminated.
 139:stm32f10x_it.c **** 	_sysTicks++;
 18840              		.loc 1 140 0
 18841 0000 DFF848C0 		ldr	ip, .L18
 18842 0004 DCF80000 		ldr	r0, [ip, #0]
 18843 0008 431C     		adds	r3, r0, #1
 18844 000a CCF80030 		str	r3, [ip, #0]
 140:stm32f10x_it.c **** 
 141:stm32f10x_it.c **** 	if((_sysTicks % 1000) == 0) {
 18845              		.loc 1 142 0
 18846 000e DCF80020 		ldr	r2, [ip, #0]
 18847 0012 4FF47A70 		mov	r0, #1000
 18848 0016 B2FBF0F1 		udiv	r1, r2, r0
 18849 001a 00FB1123 		mls	r3, r0, r1, r2
 18850 001e A3B9     		cbnz	r3, .L13
 18851              	.LBB2:
 142:stm32f10x_it.c **** 		static uint8_t flip=0;
 143:stm32f10x_it.c **** 		if ( flip ) {
 18852              		.loc 1 144 0
 18853 0020 0B49     		ldr	r1, .L18+4
 18854 0022 0B78     		ldrb	r3, [r1, #0]	@ zero_extendqisi2
 18855 0024 2BB1     		cbz	r3, .L15
 144:stm32f10x_it.c **** 			DBG_LED_PORT->BSRR = DBG_LED_PIN;
 18856              		.loc 1 145 0
 18857 0026 0B4A     		ldr	r2, .L18+8
 18858 0028 4FF4005C 		mov	ip, #8192
 18859 002c C2F810C0 		str	ip, [r2, #16]
 18860 0030 03E0     		b	.L16
 18861              	.L15:
 145:stm32f10x_it.c **** 		} else {
 146:stm32f10x_it.c **** 			DBG_LED_PORT->BRR = DBG_LED_PIN;
 18862              		.loc 1 147 0
 18863 0032 0849     		ldr	r1, .L18+8
 18864 0034 4FF40050 		mov	r0, #8192
 18865 0038 4861     		str	r0, [r1, #20]
 18866              	.L16:
 147:stm32f10x_it.c **** 		}
 148:stm32f10x_it.c **** 		flip = !flip;
 18867              		.loc 1 149 0
 18868 003a DFF814C0 		ldr	ip, .L18+4
 18869 003e D3F10103 		rsbs	r3, r3, #1
 18870 0042 38BF     		it	cc
 18871 0044 0023     		movcc	r3, #0
 18872 0046 8CF80030 		strb	r3, [ip, #0]
 18873              	.L13:
 18874              	.LBE2:
 149:stm32f10x_it.c **** 	}
 150:stm32f10x_it.c **** }
 18875              		.loc 1 151 0
 18876 004a 7047     		bx	lr
 18877              	.L19:
 18878              		.align	2
 18879              	.L18:
 18880 004c 00000000 		.word	.LANCHOR0
 18881 0050 00000000 		.word	.LANCHOR1
 18882 0054 00100140 		.word	1073811456
 18883              	.LFE35:
 18885              		.section	.text.WWDG_IRQHandler,"ax",%progbits
 18886              		.align	1
 18887              		.global	WWDG_IRQHandler
 18888              		.thumb
 18889              		.thumb_func
 18891              	WWDG_IRQHandler:
 18892              	.LFB36:
 151:stm32f10x_it.c **** 
 152:stm32f10x_it.c **** /*******************************************************************************
 153:stm32f10x_it.c **** * Function Name  : WWDG_IRQHandler
 154:stm32f10x_it.c **** * Description    : This function handles WWDG interrupt request.
 155:stm32f10x_it.c **** * Input          : None
 156:stm32f10x_it.c **** * Output         : None
 157:stm32f10x_it.c **** * Return         : None
 158:stm32f10x_it.c **** *******************************************************************************/
 159:stm32f10x_it.c **** void WWDG_IRQHandler(void)
 160:stm32f10x_it.c **** {}
 18893              		.loc 1 161 0
 18894              		@ args = 0, pretend = 0, frame = 0
 18895              		@ frame_needed = 0, uses_anonymous_args = 0
 18896              		@ link register save eliminated.
 18897              		.loc 1 161 0
 18898 0000 7047     		bx	lr
 18899              	.LFE36:
 18901              		.section	.text.PVD_IRQHandler,"ax",%progbits
 18902              		.align	1
 18903              		.global	PVD_IRQHandler
 18904              		.thumb
 18905              		.thumb_func
 18907              	PVD_IRQHandler:
 18908              	.LFB37:
 161:stm32f10x_it.c **** 
 162:stm32f10x_it.c **** /*******************************************************************************
 163:stm32f10x_it.c **** * Function Name  : PVD_IRQHandler
 164:stm32f10x_it.c **** * Description    : This function handles PVD interrupt request.
 165:stm32f10x_it.c **** * Input          : None
 166:stm32f10x_it.c **** * Output         : None
 167:stm32f10x_it.c **** * Return         : None
 168:stm32f10x_it.c **** *******************************************************************************/
 169:stm32f10x_it.c **** void PVD_IRQHandler(void)
 170:stm32f10x_it.c **** {}
 18909              		.loc 1 171 0
 18910              		@ args = 0, pretend = 0, frame = 0
 18911              		@ frame_needed = 0, uses_anonymous_args = 0
 18912              		@ link register save eliminated.
 18913              		.loc 1 171 0
 18914 0000 7047     		bx	lr
 18915              	.LFE37:
 18917              		.section	.text.TAMPER_IRQHandler,"ax",%progbits
 18918              		.align	1
 18919              		.global	TAMPER_IRQHandler
 18920              		.thumb
 18921              		.thumb_func
 18923              	TAMPER_IRQHandler:
 18924              	.LFB38:
 171:stm32f10x_it.c **** 
 172:stm32f10x_it.c **** /*******************************************************************************
 173:stm32f10x_it.c **** * Function Name  : TAMPER_IRQHandler
 174:stm32f10x_it.c **** * Description    : This function handles Tamper interrupt request.
 175:stm32f10x_it.c **** * Input          : None
 176:stm32f10x_it.c **** * Output         : None
 177:stm32f10x_it.c **** * Return         : None
 178:stm32f10x_it.c **** *******************************************************************************/
 179:stm32f10x_it.c **** void TAMPER_IRQHandler(void)
 180:stm32f10x_it.c **** {}
 18925              		.loc 1 181 0
 18926              		@ args = 0, pretend = 0, frame = 0
 18927              		@ frame_needed = 0, uses_anonymous_args = 0
 18928              		@ link register save eliminated.
 18929              		.loc 1 181 0
 18930 0000 7047     		bx	lr
 18931              	.LFE38:
 18933              		.section	.text.RTC_IRQHandler,"ax",%progbits
 18934              		.align	1
 18935              		.global	RTC_IRQHandler
 18936              		.thumb
 18937              		.thumb_func
 18939              	RTC_IRQHandler:
 18940              	.LFB39:
 181:stm32f10x_it.c **** 
 182:stm32f10x_it.c **** /*******************************************************************************
 183:stm32f10x_it.c **** * Function Name  : RTC_IRQHandler
 184:stm32f10x_it.c **** * Description    : This function handles RTC global interrupt request.
 185:stm32f10x_it.c **** * Input          : None
 186:stm32f10x_it.c **** * Output         : None
 187:stm32f10x_it.c **** * Return         : None
 188:stm32f10x_it.c **** *******************************************************************************/
 189:stm32f10x_it.c **** void RTC_IRQHandler(void)
 190:stm32f10x_it.c **** {}
 18941              		.loc 1 191 0
 18942              		@ args = 0, pretend = 0, frame = 0
 18943              		@ frame_needed = 0, uses_anonymous_args = 0
 18944              		@ link register save eliminated.
 18945              		.loc 1 191 0
 18946 0000 7047     		bx	lr
 18947              	.LFE39:
 18949              		.section	.text.FLASH_IRQHandler,"ax",%progbits
 18950              		.align	1
 18951              		.global	FLASH_IRQHandler
 18952              		.thumb
 18953              		.thumb_func
 18955              	FLASH_IRQHandler:
 18956              	.LFB40:
 191:stm32f10x_it.c **** 
 192:stm32f10x_it.c **** /*******************************************************************************
 193:stm32f10x_it.c **** * Function Name  : FLASH_IRQHandler
 194:stm32f10x_it.c **** * Description    : This function handles Flash interrupt request.
 195:stm32f10x_it.c **** * Input          : None
 196:stm32f10x_it.c **** * Output         : None
 197:stm32f10x_it.c **** * Return         : None
 198:stm32f10x_it.c **** *******************************************************************************/
 199:stm32f10x_it.c **** void FLASH_IRQHandler(void)
 200:stm32f10x_it.c **** {}
 18957              		.loc 1 201 0
 18958              		@ args = 0, pretend = 0, frame = 0
 18959              		@ frame_needed = 0, uses_anonymous_args = 0
 18960              		@ link register save eliminated.
 18961              		.loc 1 201 0
 18962 0000 7047     		bx	lr
 18963              	.LFE40:
 18965              		.section	.text.RCC_IRQHandler,"ax",%progbits
 18966              		.align	1
 18967              		.global	RCC_IRQHandler
 18968              		.thumb
 18969              		.thumb_func
 18971              	RCC_IRQHandler:
 18972              	.LFB41:
 201:stm32f10x_it.c **** 
 202:stm32f10x_it.c **** /*******************************************************************************
 203:stm32f10x_it.c **** * Function Name  : RCC_IRQHandler
 204:stm32f10x_it.c **** * Description    : This function handles RCC interrupt request.
 205:stm32f10x_it.c **** * Input          : None
 206:stm32f10x_it.c **** * Output         : None
 207:stm32f10x_it.c **** * Return         : None
 208:stm32f10x_it.c **** *******************************************************************************/
 209:stm32f10x_it.c **** void RCC_IRQHandler(void)
 210:stm32f10x_it.c **** {}
 18973              		.loc 1 211 0
 18974              		@ args = 0, pretend = 0, frame = 0
 18975              		@ frame_needed = 0, uses_anonymous_args = 0
 18976              		@ link register save eliminated.
 18977              		.loc 1 211 0
 18978 0000 7047     		bx	lr
 18979              	.LFE41:
 18981              		.section	.text.EXTI0_IRQHandler,"ax",%progbits
 18982              		.align	1
 18983              		.global	EXTI0_IRQHandler
 18984              		.thumb
 18985              		.thumb_func
 18987              	EXTI0_IRQHandler:
 18988              	.LFB42:
 211:stm32f10x_it.c **** 
 212:stm32f10x_it.c **** /*******************************************************************************
 213:stm32f10x_it.c **** * Function Name  : EXTI0_IRQHandler
 214:stm32f10x_it.c **** * Description    : This function handles External interrupt Line 0 request.
 215:stm32f10x_it.c **** * Input          : None
 216:stm32f10x_it.c **** * Output         : None
 217:stm32f10x_it.c **** * Return         : None
 218:stm32f10x_it.c **** *******************************************************************************/
 219:stm32f10x_it.c **** void EXTI0_IRQHandler(void)
 220:stm32f10x_it.c **** {}
 18989              		.loc 1 221 0
 18990              		@ args = 0, pretend = 0, frame = 0
 18991              		@ frame_needed = 0, uses_anonymous_args = 0
 18992              		@ link register save eliminated.
 18993              		.loc 1 221 0
 18994 0000 7047     		bx	lr
 18995              	.LFE42:
 18997              		.section	.text.EXTI1_IRQHandler,"ax",%progbits
 18998              		.align	1
 18999              		.global	EXTI1_IRQHandler
 19000              		.thumb
 19001              		.thumb_func
 19003              	EXTI1_IRQHandler:
 19004              	.LFB43:
 221:stm32f10x_it.c **** 
 222:stm32f10x_it.c **** /*******************************************************************************
 223:stm32f10x_it.c **** * Function Name  : EXTI1_IRQHandler
 224:stm32f10x_it.c **** * Description    : This function handles External interrupt Line 1 request.
 225:stm32f10x_it.c **** * Input          : None
 226:stm32f10x_it.c **** * Output         : None
 227:stm32f10x_it.c **** * Return         : None
 228:stm32f10x_it.c **** *******************************************************************************/
 229:stm32f10x_it.c **** void EXTI1_IRQHandler(void)
 230:stm32f10x_it.c **** {}
 19005              		.loc 1 231 0
 19006              		@ args = 0, pretend = 0, frame = 0
 19007              		@ frame_needed = 0, uses_anonymous_args = 0
 19008              		@ link register save eliminated.
 19009              		.loc 1 231 0
 19010 0000 7047     		bx	lr
 19011              	.LFE43:
 19013              		.section	.text.EXTI2_IRQHandler,"ax",%progbits
 19014              		.align	1
 19015              		.global	EXTI2_IRQHandler
 19016              		.thumb
 19017              		.thumb_func
 19019              	EXTI2_IRQHandler:
 19020              	.LFB44:
 231:stm32f10x_it.c **** 
 232:stm32f10x_it.c **** /*******************************************************************************
 233:stm32f10x_it.c **** * Function Name  : EXTI2_IRQHandler
 234:stm32f10x_it.c **** * Description    : This function handles External interrupt Line 2 request.
 235:stm32f10x_it.c **** * Input          : None
 236:stm32f10x_it.c **** * Output         : None
 237:stm32f10x_it.c **** * Return         : None
 238:stm32f10x_it.c **** *******************************************************************************/
 239:stm32f10x_it.c **** void EXTI2_IRQHandler(void)
 240:stm32f10x_it.c **** {}
 19021              		.loc 1 241 0
 19022              		@ args = 0, pretend = 0, frame = 0
 19023              		@ frame_needed = 0, uses_anonymous_args = 0
 19024              		@ link register save eliminated.
 19025              		.loc 1 241 0
 19026 0000 7047     		bx	lr
 19027              	.LFE44:
 19029              		.section	.text.EXTI3_IRQHandler,"ax",%progbits
 19030              		.align	1
 19031              		.global	EXTI3_IRQHandler
 19032              		.thumb
 19033              		.thumb_func
 19035              	EXTI3_IRQHandler:
 19036              	.LFB45:
 241:stm32f10x_it.c **** 
 242:stm32f10x_it.c **** /*******************************************************************************
 243:stm32f10x_it.c **** * Function Name  : EXTI3_IRQHandler
 244:stm32f10x_it.c **** * Description    : This function handles External interrupt Line 3 request.
 245:stm32f10x_it.c **** * Input          : None
 246:stm32f10x_it.c **** * Output         : None
 247:stm32f10x_it.c **** * Return         : None
 248:stm32f10x_it.c **** *******************************************************************************/
 249:stm32f10x_it.c **** void EXTI3_IRQHandler(void)
 250:stm32f10x_it.c **** {}
 19037              		.loc 1 251 0
 19038              		@ args = 0, pretend = 0, frame = 0
 19039              		@ frame_needed = 0, uses_anonymous_args = 0
 19040              		@ link register save eliminated.
 19041              		.loc 1 251 0
 19042 0000 7047     		bx	lr
 19043              	.LFE45:
 19045              		.section	.text.EXTI4_IRQHandler,"ax",%progbits
 19046              		.align	1
 19047              		.global	EXTI4_IRQHandler
 19048              		.thumb
 19049              		.thumb_func
 19051              	EXTI4_IRQHandler:
 19052              	.LFB46:
 251:stm32f10x_it.c **** 
 252:stm32f10x_it.c **** /*******************************************************************************
 253:stm32f10x_it.c **** * Function Name  : EXTI4_IRQHandler
 254:stm32f10x_it.c **** * Description    : This function handles External interrupt Line 4 request.
 255:stm32f10x_it.c **** * Input          : None
 256:stm32f10x_it.c **** * Output         : None
 257:stm32f10x_it.c **** * Return         : None
 258:stm32f10x_it.c **** *******************************************************************************/
 259:stm32f10x_it.c **** 
 260:stm32f10x_it.c **** void EXTI4_IRQHandler(void){}
 19053              		.loc 1 261 0
 19054              		@ args = 0, pretend = 0, frame = 0
 19055              		@ frame_needed = 0, uses_anonymous_args = 0
 19056              		@ link register save eliminated.
 19057              		.loc 1 261 0
 19058 0000 7047     		bx	lr
 19059              	.LFE46:
 19061              		.section	.text.DMA1_Channel1_IRQHandler,"ax",%progbits
 19062              		.align	1
 19063              		.global	DMA1_Channel1_IRQHandler
 19064              		.thumb
 19065              		.thumb_func
 19067              	DMA1_Channel1_IRQHandler:
 19068              	.LFB47:
 261:stm32f10x_it.c **** 
 262:stm32f10x_it.c **** /*******************************************************************************
 263:stm32f10x_it.c **** * Function Name  : DMA1_Channel1_IRQHandler
 264:stm32f10x_it.c **** * Description    : This function handles DMA1 Channel 1 interrupt request.
 265:stm32f10x_it.c **** * Input          : None
 266:stm32f10x_it.c **** * Output         : None
 267:stm32f10x_it.c **** * Return         : None
 268:stm32f10x_it.c **** *******************************************************************************/
 269:stm32f10x_it.c **** void DMA1_Channel1_IRQHandler(void){}
 19069              		.loc 1 270 0
 19070              		@ args = 0, pretend = 0, frame = 0
 19071              		@ frame_needed = 0, uses_anonymous_args = 0
 19072              		@ link register save eliminated.
 19073              		.loc 1 270 0
 19074 0000 7047     		bx	lr
 19075              	.LFE47:
 19077              		.section	.text.DMA1_Channel2_IRQHandler,"ax",%progbits
 19078              		.align	1
 19079              		.global	DMA1_Channel2_IRQHandler
 19080              		.thumb
 19081              		.thumb_func
 19083              	DMA1_Channel2_IRQHandler:
 19084              	.LFB48:
 270:stm32f10x_it.c **** 
 271:stm32f10x_it.c **** /*******************************************************************************
 272:stm32f10x_it.c **** * Function Name  : DMA1_Channel2_IRQHandler
 273:stm32f10x_it.c **** * Description    : This function handles DMA1 Channel 2 interrupt request.
 274:stm32f10x_it.c **** * Input          : None
 275:stm32f10x_it.c **** * Output         : None
 276:stm32f10x_it.c **** * Return         : None
 277:stm32f10x_it.c **** *******************************************************************************/
 278:stm32f10x_it.c **** void DMA1_Channel2_IRQHandler(void) {}
 19085              		.loc 1 279 0
 19086              		@ args = 0, pretend = 0, frame = 0
 19087              		@ frame_needed = 0, uses_anonymous_args = 0
 19088              		@ link register save eliminated.
 19089              		.loc 1 279 0
 19090 0000 7047     		bx	lr
 19091              	.LFE48:
 19093              		.section	.text.DMA1_Channel3_IRQHandler,"ax",%progbits
 19094              		.align	1
 19095              		.global	DMA1_Channel3_IRQHandler
 19096              		.thumb
 19097              		.thumb_func
 19099              	DMA1_Channel3_IRQHandler:
 19100              	.LFB49:
 279:stm32f10x_it.c **** 
 280:stm32f10x_it.c **** /*******************************************************************************
 281:stm32f10x_it.c **** * Function Name  : DMA1_Channel3_IRQHandler
 282:stm32f10x_it.c **** * Description    : This function handles DMA1 Channel 3 interrupt request.
 283:stm32f10x_it.c **** * Input          : None
 284:stm32f10x_it.c **** * Output         : None
 285:stm32f10x_it.c **** * Return         : None
 286:stm32f10x_it.c **** *******************************************************************************/
 287:stm32f10x_it.c **** void DMA1_Channel3_IRQHandler(void)
 288:stm32f10x_it.c **** {}
 19101              		.loc 1 289 0
 19102              		@ args = 0, pretend = 0, frame = 0
 19103              		@ frame_needed = 0, uses_anonymous_args = 0
 19104              		@ link register save eliminated.
 19105              		.loc 1 289 0
 19106 0000 7047     		bx	lr
 19107              	.LFE49:
 19109              		.section	.text.DMA1_Channel4_IRQHandler,"ax",%progbits
 19110              		.align	1
 19111              		.global	DMA1_Channel4_IRQHandler
 19112              		.thumb
 19113              		.thumb_func
 19115              	DMA1_Channel4_IRQHandler:
 19116              	.LFB50:
 289:stm32f10x_it.c **** 
 290:stm32f10x_it.c **** /*******************************************************************************
 291:stm32f10x_it.c **** * Function Name  : DMA1_Channel4_IRQHandler
 292:stm32f10x_it.c **** * Description    : This function handles DMA1 Channel 4 interrupt request.
 293:stm32f10x_it.c **** * Input          : None
 294:stm32f10x_it.c **** * Output         : None
 295:stm32f10x_it.c **** * Return         : None
 296:stm32f10x_it.c **** *******************************************************************************/
 297:stm32f10x_it.c **** void DMA1_Channel4_IRQHandler(void)
 298:stm32f10x_it.c **** {}
 19117              		.loc 1 299 0
 19118              		@ args = 0, pretend = 0, frame = 0
 19119              		@ frame_needed = 0, uses_anonymous_args = 0
 19120              		@ link register save eliminated.
 19121              		.loc 1 299 0
 19122 0000 7047     		bx	lr
 19123              	.LFE50:
 19125              		.section	.text.DMA1_Channel5_IRQHandler,"ax",%progbits
 19126              		.align	1
 19127              		.global	DMA1_Channel5_IRQHandler
 19128              		.thumb
 19129              		.thumb_func
 19131              	DMA1_Channel5_IRQHandler:
 19132              	.LFB51:
 299:stm32f10x_it.c **** 
 300:stm32f10x_it.c **** /*******************************************************************************
 301:stm32f10x_it.c **** * Function Name  : DMA1_Channel5_IRQHandler
 302:stm32f10x_it.c **** * Description    : This function handles DMA1 Channel 5 interrupt request.
 303:stm32f10x_it.c **** * Input          : None
 304:stm32f10x_it.c **** * Output         : None
 305:stm32f10x_it.c **** * Return         : None
 306:stm32f10x_it.c **** *******************************************************************************/
 307:stm32f10x_it.c **** void DMA1_Channel5_IRQHandler(void)
 308:stm32f10x_it.c **** {}
 19133              		.loc 1 309 0
 19134              		@ args = 0, pretend = 0, frame = 0
 19135              		@ frame_needed = 0, uses_anonymous_args = 0
 19136              		@ link register save eliminated.
 19137              		.loc 1 309 0
 19138 0000 7047     		bx	lr
 19139              	.LFE51:
 19141              		.section	.text.DMA1_Channel6_IRQHandler,"ax",%progbits
 19142              		.align	1
 19143              		.global	DMA1_Channel6_IRQHandler
 19144              		.thumb
 19145              		.thumb_func
 19147              	DMA1_Channel6_IRQHandler:
 19148              	.LFB52:
 309:stm32f10x_it.c **** 
 310:stm32f10x_it.c **** /*******************************************************************************
 311:stm32f10x_it.c **** * Function Name  : DMA1_Channel6_IRQHandler
 312:stm32f10x_it.c **** * Description    : This function handles DMA1 Channel 6 interrupt request.
 313:stm32f10x_it.c **** * Input          : None
 314:stm32f10x_it.c **** * Output         : None
 315:stm32f10x_it.c **** * Return         : None
 316:stm32f10x_it.c **** *******************************************************************************/
 317:stm32f10x_it.c **** void DMA1_Channel6_IRQHandler(void)
 318:stm32f10x_it.c **** {}
 19149              		.loc 1 319 0
 19150              		@ args = 0, pretend = 0, frame = 0
 19151              		@ frame_needed = 0, uses_anonymous_args = 0
 19152              		@ link register save eliminated.
 19153              		.loc 1 319 0
 19154 0000 7047     		bx	lr
 19155              	.LFE52:
 19157              		.section	.text.DMA1_Channel7_IRQHandler,"ax",%progbits
 19158              		.align	1
 19159              		.global	DMA1_Channel7_IRQHandler
 19160              		.thumb
 19161              		.thumb_func
 19163              	DMA1_Channel7_IRQHandler:
 19164              	.LFB53:
 319:stm32f10x_it.c **** 
 320:stm32f10x_it.c **** /*******************************************************************************
 321:stm32f10x_it.c **** * Function Name  : DMA1_Channel7_IRQHandler
 322:stm32f10x_it.c **** * Description    : This function handles DMA1 Channel 7 interrupt request.
 323:stm32f10x_it.c **** * Input          : None
 324:stm32f10x_it.c **** * Output         : None
 325:stm32f10x_it.c **** * Return         : None
 326:stm32f10x_it.c **** *******************************************************************************/
 327:stm32f10x_it.c **** void DMA1_Channel7_IRQHandler(void)
 328:stm32f10x_it.c **** {}
 19165              		.loc 1 329 0
 19166              		@ args = 0, pretend = 0, frame = 0
 19167              		@ frame_needed = 0, uses_anonymous_args = 0
 19168              		@ link register save eliminated.
 19169              		.loc 1 329 0
 19170 0000 7047     		bx	lr
 19171              	.LFE53:
 19173              		.section	.text.ADC1_2_IRQHandler,"ax",%progbits
 19174              		.align	1
 19175              		.global	ADC1_2_IRQHandler
 19176              		.thumb
 19177              		.thumb_func
 19179              	ADC1_2_IRQHandler:
 19180              	.LFB54:
 329:stm32f10x_it.c **** 
 330:stm32f10x_it.c **** /*******************************************************************************
 331:stm32f10x_it.c **** * Function Name  : ADC1_2_IRQHandler
 332:stm32f10x_it.c **** * Description    : This function handles ADC1 and ADC2 global interrupts requests.
 333:stm32f10x_it.c **** * Input          : None
 334:stm32f10x_it.c **** * Output         : None
 335:stm32f10x_it.c **** * Return         : None
 336:stm32f10x_it.c **** *******************************************************************************/
 337:stm32f10x_it.c **** void ADC1_2_IRQHandler(void)
 338:stm32f10x_it.c **** {}
 19181              		.loc 1 339 0
 19182              		@ args = 0, pretend = 0, frame = 0
 19183              		@ frame_needed = 0, uses_anonymous_args = 0
 19184              		@ link register save eliminated.
 19185              		.loc 1 339 0
 19186 0000 7047     		bx	lr
 19187              	.LFE54:
 19189              		.section	.text.USB_HP_CAN_TX_IRQHandler,"ax",%progbits
 19190              		.align	1
 19191              		.global	USB_HP_CAN_TX_IRQHandler
 19192              		.thumb
 19193              		.thumb_func
 19195              	USB_HP_CAN_TX_IRQHandler:
 19196              	.LFB55:
 339:stm32f10x_it.c **** 
 340:stm32f10x_it.c **** /*******************************************************************************
 341:stm32f10x_it.c **** * Function Name  : USB_HP_CAN_TX_IRQHandler
 342:stm32f10x_it.c **** * Description    : This function handles USB High Priority or CAN TX interrupts
 343:stm32f10x_it.c **** *                  requests.
 344:stm32f10x_it.c **** * Input          : None
 345:stm32f10x_it.c **** * Output         : None
 346:stm32f10x_it.c **** * Return         : None
 347:stm32f10x_it.c **** *******************************************************************************/
 348:stm32f10x_it.c **** void USB_HP_CAN_TX_IRQHandler(void)
 349:stm32f10x_it.c **** {}
 19197              		.loc 1 350 0
 19198              		@ args = 0, pretend = 0, frame = 0
 19199              		@ frame_needed = 0, uses_anonymous_args = 0
 19200              		@ link register save eliminated.
 19201              		.loc 1 350 0
 19202 0000 7047     		bx	lr
 19203              	.LFE55:
 19205              		.section	.text.USB_LP_CAN_RX0_IRQHandler,"ax",%progbits
 19206              		.align	1
 19207              		.global	USB_LP_CAN_RX0_IRQHandler
 19208              		.thumb
 19209              		.thumb_func
 19211              	USB_LP_CAN_RX0_IRQHandler:
 19212              	.LFB56:
 350:stm32f10x_it.c **** 
 351:stm32f10x_it.c **** /*******************************************************************************
 352:stm32f10x_it.c **** * Function Name  : USB_LP_CAN_RX0_IRQHandler
 353:stm32f10x_it.c **** * Description    : This function handles USB Low Priority or CAN RX0 interrupts
 354:stm32f10x_it.c **** *                  requests.
 355:stm32f10x_it.c **** * Input          : None
 356:stm32f10x_it.c **** * Output         : None
 357:stm32f10x_it.c **** * Return         : None
 358:stm32f10x_it.c **** *******************************************************************************/
 359:stm32f10x_it.c **** void USB_LP_CAN_RX0_IRQHandler(void) {}
 19213              		.loc 1 360 0
 19214              		@ args = 0, pretend = 0, frame = 0
 19215              		@ frame_needed = 0, uses_anonymous_args = 0
 19216              		@ link register save eliminated.
 19217              		.loc 1 360 0
 19218 0000 7047     		bx	lr
 19219              	.LFE56:
 19221              		.section	.text.CAN_RX1_IRQHandler,"ax",%progbits
 19222              		.align	1
 19223              		.global	CAN_RX1_IRQHandler
 19224              		.thumb
 19225              		.thumb_func
 19227              	CAN_RX1_IRQHandler:
 19228              	.LFB57:
 360:stm32f10x_it.c **** 
 361:stm32f10x_it.c **** /*******************************************************************************
 362:stm32f10x_it.c **** * Function Name  : CAN_RX1_IRQHandler
 363:stm32f10x_it.c **** * Description    : This function handles CAN RX1 interrupt request.
 364:stm32f10x_it.c **** * Input          : None
 365:stm32f10x_it.c **** * Output         : None
 366:stm32f10x_it.c **** * Return         : None
 367:stm32f10x_it.c **** *******************************************************************************/
 368:stm32f10x_it.c **** void CAN_RX1_IRQHandler(void) {}
 19229              		.loc 1 369 0
 19230              		@ args = 0, pretend = 0, frame = 0
 19231              		@ frame_needed = 0, uses_anonymous_args = 0
 19232              		@ link register save eliminated.
 19233              		.loc 1 369 0
 19234 0000 7047     		bx	lr
 19235              	.LFE57:
 19237              		.section	.text.CAN_SCE_IRQHandler,"ax",%progbits
 19238              		.align	1
 19239              		.global	CAN_SCE_IRQHandler
 19240              		.thumb
 19241              		.thumb_func
 19243              	CAN_SCE_IRQHandler:
 19244              	.LFB58:
 369:stm32f10x_it.c **** 
 370:stm32f10x_it.c **** /*******************************************************************************
 371:stm32f10x_it.c **** * Function Name  : CAN_SCE_IRQHandler
 372:stm32f10x_it.c **** * Description    : This function handles CAN SCE interrupt request.
 373:stm32f10x_it.c **** * Input          : None
 374:stm32f10x_it.c **** * Output         : None
 375:stm32f10x_it.c **** * Return         : None
 376:stm32f10x_it.c **** *******************************************************************************/
 377:stm32f10x_it.c **** void CAN_SCE_IRQHandler(void)
 378:stm32f10x_it.c **** {}
 19245              		.loc 1 379 0
 19246              		@ args = 0, pretend = 0, frame = 0
 19247              		@ frame_needed = 0, uses_anonymous_args = 0
 19248              		@ link register save eliminated.
 19249              		.loc 1 379 0
 19250 0000 7047     		bx	lr
 19251              	.LFE58:
 19253              		.section	.text.EXTI9_5_IRQHandler,"ax",%progbits
 19254              		.align	1
 19255              		.global	EXTI9_5_IRQHandler
 19256              		.thumb
 19257              		.thumb_func
 19259              	EXTI9_5_IRQHandler:
 19260              	.LFB59:
 379:stm32f10x_it.c **** 
 380:stm32f10x_it.c **** /*******************************************************************************
 381:stm32f10x_it.c **** * Function Name  : EXTI9_5_IRQHandler
 382:stm32f10x_it.c **** * Description    : This function handles External lines 9 to 5 interrupt request.
 383:stm32f10x_it.c **** * Input          : None
 384:stm32f10x_it.c **** * Output         : None
 385:stm32f10x_it.c **** * Return         : None
 386:stm32f10x_it.c **** *******************************************************************************/
 387:stm32f10x_it.c **** void EXTI9_5_IRQHandler(void)
 388:stm32f10x_it.c **** {
 19261              		.loc 1 389 0
 19262              		@ args = 0, pretend = 0, frame = 0
 19263              		@ frame_needed = 0, uses_anonymous_args = 0
 19264              		@ link register save eliminated.
 389:stm32f10x_it.c **** }
 19265              		.loc 1 390 0
 19266 0000 7047     		bx	lr
 19267              	.LFE59:
 19269              		.section	.text.TIM1_BRK_IRQHandler,"ax",%progbits
 19270              		.align	1
 19271              		.global	TIM1_BRK_IRQHandler
 19272              		.thumb
 19273              		.thumb_func
 19275              	TIM1_BRK_IRQHandler:
 19276              	.LFB60:
 390:stm32f10x_it.c **** 
 391:stm32f10x_it.c **** /*******************************************************************************
 392:stm32f10x_it.c **** * Function Name  : TIM1_BRK_IRQHandler
 393:stm32f10x_it.c **** * Description    : This function handles TIM1 Break interrupt request.
 394:stm32f10x_it.c **** * Input          : None
 395:stm32f10x_it.c **** * Output         : None
 396:stm32f10x_it.c **** * Return         : None
 397:stm32f10x_it.c **** *******************************************************************************/
 398:stm32f10x_it.c **** void TIM1_BRK_IRQHandler(void)
 399:stm32f10x_it.c **** {}
 19277              		.loc 1 400 0
 19278              		@ args = 0, pretend = 0, frame = 0
 19279              		@ frame_needed = 0, uses_anonymous_args = 0
 19280              		@ link register save eliminated.
 19281              		.loc 1 400 0
 19282 0000 7047     		bx	lr
 19283              	.LFE60:
 19285              		.section	.text.TIM1_UP_IRQHandler,"ax",%progbits
 19286              		.align	1
 19287              		.global	TIM1_UP_IRQHandler
 19288              		.thumb
 19289              		.thumb_func
 19291              	TIM1_UP_IRQHandler:
 19292              	.LFB61:
 400:stm32f10x_it.c **** 
 401:stm32f10x_it.c **** /*******************************************************************************
 402:stm32f10x_it.c **** * Function Name  : TIM1_UP_IRQHandler
 403:stm32f10x_it.c **** * Description    : This function handles TIM1 overflow and update interrupt
 404:stm32f10x_it.c **** *                  request.
 405:stm32f10x_it.c **** * Input          : None
 406:stm32f10x_it.c **** * Output         : None
 407:stm32f10x_it.c **** * Return         : None
 408:stm32f10x_it.c **** *******************************************************************************/
 409:stm32f10x_it.c **** void TIM1_UP_IRQHandler(void)
 410:stm32f10x_it.c **** {}
 19293              		.loc 1 411 0
 19294              		@ args = 0, pretend = 0, frame = 0
 19295              		@ frame_needed = 0, uses_anonymous_args = 0
 19296              		@ link register save eliminated.
 19297              		.loc 1 411 0
 19298 0000 7047     		bx	lr
 19299              	.LFE61:
 19301              		.section	.text.TIM1_TRG_COM_IRQHandler,"ax",%progbits
 19302              		.align	1
 19303              		.global	TIM1_TRG_COM_IRQHandler
 19304              		.thumb
 19305              		.thumb_func
 19307              	TIM1_TRG_COM_IRQHandler:
 19308              	.LFB62:
 411:stm32f10x_it.c **** 
 412:stm32f10x_it.c **** /*******************************************************************************
 413:stm32f10x_it.c **** * Function Name  : TIM1_TRG_COM_IRQHandler
 414:stm32f10x_it.c **** * Description    : This function handles TIM1 Trigger and commutation interrupts
 415:stm32f10x_it.c **** *                  requests.
 416:stm32f10x_it.c **** * Input          : None
 417:stm32f10x_it.c **** * Output         : None
 418:stm32f10x_it.c **** * Return         : None
 419:stm32f10x_it.c **** *******************************************************************************/
 420:stm32f10x_it.c **** void TIM1_TRG_COM_IRQHandler(void)
 421:stm32f10x_it.c **** {}
 19309              		.loc 1 422 0
 19310              		@ args = 0, pretend = 0, frame = 0
 19311              		@ frame_needed = 0, uses_anonymous_args = 0
 19312              		@ link register save eliminated.
 19313              		.loc 1 422 0
 19314 0000 7047     		bx	lr
 19315              	.LFE62:
 19317              		.section	.text.TIM1_CC_IRQHandler,"ax",%progbits
 19318              		.align	1
 19319              		.global	TIM1_CC_IRQHandler
 19320              		.thumb
 19321              		.thumb_func
 19323              	TIM1_CC_IRQHandler:
 19324              	.LFB63:
 422:stm32f10x_it.c **** 
 423:stm32f10x_it.c **** /*******************************************************************************
 424:stm32f10x_it.c **** * Function Name  : TIM1_CC_IRQHandler
 425:stm32f10x_it.c **** * Description    : This function handles TIM1 capture compare interrupt request.
 426:stm32f10x_it.c **** * Input          : None
 427:stm32f10x_it.c **** * Output         : None
 428:stm32f10x_it.c **** * Return         : None
 429:stm32f10x_it.c **** *******************************************************************************/
 430:stm32f10x_it.c **** void TIM1_CC_IRQHandler(void) {}
 19325              		.loc 1 431 0
 19326              		@ args = 0, pretend = 0, frame = 0
 19327              		@ frame_needed = 0, uses_anonymous_args = 0
 19328              		@ link register save eliminated.
 19329              		.loc 1 431 0
 19330 0000 7047     		bx	lr
 19331              	.LFE63:
 19333              		.section	.text.TIM2_IRQHandler,"ax",%progbits
 19334              		.align	1
 19335              		.global	TIM2_IRQHandler
 19336              		.thumb
 19337              		.thumb_func
 19339              	TIM2_IRQHandler:
 19340              	.LFB64:
 431:stm32f10x_it.c **** 
 432:stm32f10x_it.c **** /*******************************************************************************
 433:stm32f10x_it.c **** * Function Name  : TIM2_IRQHandler
 434:stm32f10x_it.c **** * Description    : This function handles TIM2 global interrupt request.
 435:stm32f10x_it.c **** * Input          : None
 436:stm32f10x_it.c **** * Output         : None
 437:stm32f10x_it.c **** * Return         : None
 438:stm32f10x_it.c **** *******************************************************************************/
 439:stm32f10x_it.c **** void TIM2_IRQHandler(void) {}
 19341              		.loc 1 440 0
 19342              		@ args = 0, pretend = 0, frame = 0
 19343              		@ frame_needed = 0, uses_anonymous_args = 0
 19344              		@ link register save eliminated.
 19345              		.loc 1 440 0
 19346 0000 7047     		bx	lr
 19347              	.LFE64:
 19349              		.section	.text.TIM3_IRQHandler,"ax",%progbits
 19350              		.align	1
 19351              		.global	TIM3_IRQHandler
 19352              		.thumb
 19353              		.thumb_func
 19355              	TIM3_IRQHandler:
 19356              	.LFB65:
 440:stm32f10x_it.c **** 
 441:stm32f10x_it.c **** /*******************************************************************************
 442:stm32f10x_it.c **** * Function Name  : TIM3_IRQHandler
 443:stm32f10x_it.c **** * Description    : This function handles TIM3 global interrupt request.
 444:stm32f10x_it.c **** * Input          : None
 445:stm32f10x_it.c **** * Output         : None
 446:stm32f10x_it.c **** * Return         : None
 447:stm32f10x_it.c **** *******************************************************************************/
 448:stm32f10x_it.c **** void TIM3_IRQHandler(void) {
 19357              		.loc 1 449 0
 19358              		@ args = 0, pretend = 0, frame = 0
 19359              		@ frame_needed = 0, uses_anonymous_args = 0
 19360              		@ link register save eliminated.
 449:stm32f10x_it.c **** }
 19361              		.loc 1 450 0
 19362 0000 7047     		bx	lr
 19363              	.LFE65:
 19365              		.section	.text.TIM4_IRQHandler,"ax",%progbits
 19366              		.align	1
 19367              		.global	TIM4_IRQHandler
 19368              		.thumb
 19369              		.thumb_func
 19371              	TIM4_IRQHandler:
 19372              	.LFB66:
 450:stm32f10x_it.c **** /*******************************************************************************
 451:stm32f10x_it.c **** * Function Name  : TIM4_IRQHandler
 452:stm32f10x_it.c **** * Description    : This function handles TIM4 global interrupt request.
 453:stm32f10x_it.c **** * Input          : None
 454:stm32f10x_it.c **** * Output         : None
 455:stm32f10x_it.c **** * Return         : None
 456:stm32f10x_it.c **** *******************************************************************************/
 457:stm32f10x_it.c **** void TIM4_IRQHandler(void) {}
 19373              		.loc 1 458 0
 19374              		@ args = 0, pretend = 0, frame = 0
 19375              		@ frame_needed = 0, uses_anonymous_args = 0
 19376              		@ link register save eliminated.
 19377              		.loc 1 458 0
 19378 0000 7047     		bx	lr
 19379              	.LFE66:
 19381              		.section	.text.I2C1_EV_IRQHandler,"ax",%progbits
 19382              		.align	1
 19383              		.global	I2C1_EV_IRQHandler
 19384              		.thumb
 19385              		.thumb_func
 19387              	I2C1_EV_IRQHandler:
 19388              	.LFB67:
 458:stm32f10x_it.c **** 
 459:stm32f10x_it.c **** /*******************************************************************************
 460:stm32f10x_it.c **** * Function Name  : I2C1_EV_IRQHandler
 461:stm32f10x_it.c **** * Description    : This function handles I2C1 Event interrupt request.
 462:stm32f10x_it.c **** * Input          : None
 463:stm32f10x_it.c **** * Output         : None
 464:stm32f10x_it.c **** * Return         : None
 465:stm32f10x_it.c **** *******************************************************************************/
 466:stm32f10x_it.c **** void I2C1_EV_IRQHandler(void)
 467:stm32f10x_it.c **** {}
 19389              		.loc 1 468 0
 19390              		@ args = 0, pretend = 0, frame = 0
 19391              		@ frame_needed = 0, uses_anonymous_args = 0
 19392              		@ link register save eliminated.
 19393              		.loc 1 468 0
 19394 0000 7047     		bx	lr
 19395              	.LFE67:
 19397              		.section	.text.I2C1_ER_IRQHandler,"ax",%progbits
 19398              		.align	1
 19399              		.global	I2C1_ER_IRQHandler
 19400              		.thumb
 19401              		.thumb_func
 19403              	I2C1_ER_IRQHandler:
 19404              	.LFB68:
 468:stm32f10x_it.c **** 
 469:stm32f10x_it.c **** /*******************************************************************************
 470:stm32f10x_it.c **** * Function Name  : I2C1_ER_IRQHandler
 471:stm32f10x_it.c **** * Description    : This function handles I2C1 Error interrupt request.
 472:stm32f10x_it.c **** * Input          : None
 473:stm32f10x_it.c **** * Output         : None
 474:stm32f10x_it.c **** * Return         : None
 475:stm32f10x_it.c **** *******************************************************************************/
 476:stm32f10x_it.c **** void I2C1_ER_IRQHandler(void)
 477:stm32f10x_it.c **** {}
 19405              		.loc 1 478 0
 19406              		@ args = 0, pretend = 0, frame = 0
 19407              		@ frame_needed = 0, uses_anonymous_args = 0
 19408              		@ link register save eliminated.
 19409              		.loc 1 478 0
 19410 0000 7047     		bx	lr
 19411              	.LFE68:
 19413              		.section	.text.I2C2_EV_IRQHandler,"ax",%progbits
 19414              		.align	1
 19415              		.global	I2C2_EV_IRQHandler
 19416              		.thumb
 19417              		.thumb_func
 19419              	I2C2_EV_IRQHandler:
 19420              	.LFB69:
 478:stm32f10x_it.c **** 
 479:stm32f10x_it.c **** /*******************************************************************************
 480:stm32f10x_it.c **** * Function Name  : I2C2_EV_IRQHandler
 481:stm32f10x_it.c **** * Description    : This function handles I2C2 Event interrupt request.
 482:stm32f10x_it.c **** * Input          : None
 483:stm32f10x_it.c **** * Output         : None
 484:stm32f10x_it.c **** * Return         : None
 485:stm32f10x_it.c **** *******************************************************************************/
 486:stm32f10x_it.c **** void I2C2_EV_IRQHandler(void)
 487:stm32f10x_it.c **** {}
 19421              		.loc 1 488 0
 19422              		@ args = 0, pretend = 0, frame = 0
 19423              		@ frame_needed = 0, uses_anonymous_args = 0
 19424              		@ link register save eliminated.
 19425              		.loc 1 488 0
 19426 0000 7047     		bx	lr
 19427              	.LFE69:
 19429              		.section	.text.I2C2_ER_IRQHandler,"ax",%progbits
 19430              		.align	1
 19431              		.global	I2C2_ER_IRQHandler
 19432              		.thumb
 19433              		.thumb_func
 19435              	I2C2_ER_IRQHandler:
 19436              	.LFB70:
 488:stm32f10x_it.c **** 
 489:stm32f10x_it.c **** /*******************************************************************************
 490:stm32f10x_it.c **** * Function Name  : I2C2_ER_IRQHandler
 491:stm32f10x_it.c **** * Description    : This function handles I2C2 Error interrupt request.
 492:stm32f10x_it.c **** * Input          : None
 493:stm32f10x_it.c **** * Output         : None
 494:stm32f10x_it.c **** * Return         : None
 495:stm32f10x_it.c **** *******************************************************************************/
 496:stm32f10x_it.c **** void I2C2_ER_IRQHandler(void)
 497:stm32f10x_it.c **** {}
 19437              		.loc 1 498 0
 19438              		@ args = 0, pretend = 0, frame = 0
 19439              		@ frame_needed = 0, uses_anonymous_args = 0
 19440              		@ link register save eliminated.
 19441              		.loc 1 498 0
 19442 0000 7047     		bx	lr
 19443              	.LFE70:
 19445              		.section	.text.SPI1_IRQHandler,"ax",%progbits
 19446              		.align	1
 19447              		.global	SPI1_IRQHandler
 19448              		.thumb
 19449              		.thumb_func
 19451              	SPI1_IRQHandler:
 19452              	.LFB71:
 498:stm32f10x_it.c **** 
 499:stm32f10x_it.c **** /*******************************************************************************
 500:stm32f10x_it.c **** * Function Name  : SPI1_IRQHandler
 501:stm32f10x_it.c **** * Description    : This function handles SPI1 global interrupt request.
 502:stm32f10x_it.c **** * Input          : None
 503:stm32f10x_it.c **** * Output         : None
 504:stm32f10x_it.c **** * Return         : None
 505:stm32f10x_it.c **** *******************************************************************************/
 506:stm32f10x_it.c **** 
 507:stm32f10x_it.c **** void SPI1_IRQHandler(void) {}
 19453              		.loc 1 508 0
 19454              		@ args = 0, pretend = 0, frame = 0
 19455              		@ frame_needed = 0, uses_anonymous_args = 0
 19456              		@ link register save eliminated.
 19457              		.loc 1 508 0
 19458 0000 7047     		bx	lr
 19459              	.LFE71:
 19461              		.section	.text.SPI2_IRQHandler,"ax",%progbits
 19462              		.align	1
 19463              		.global	SPI2_IRQHandler
 19464              		.thumb
 19465              		.thumb_func
 19467              	SPI2_IRQHandler:
 19468              	.LFB72:
 508:stm32f10x_it.c **** 
 509:stm32f10x_it.c **** /*******************************************************************************
 510:stm32f10x_it.c **** * Function Name  : SPI2_IRQHandler
 511:stm32f10x_it.c **** * Description    : This function handles SPI2 global interrupt request.
 512:stm32f10x_it.c **** * Input          : None
 513:stm32f10x_it.c **** * Output         : None
 514:stm32f10x_it.c **** * Return         : None
 515:stm32f10x_it.c **** *******************************************************************************/
 516:stm32f10x_it.c **** void SPI2_IRQHandler(void)
 517:stm32f10x_it.c **** {}
 19469              		.loc 1 518 0
 19470              		@ args = 0, pretend = 0, frame = 0
 19471              		@ frame_needed = 0, uses_anonymous_args = 0
 19472              		@ link register save eliminated.
 19473              		.loc 1 518 0
 19474 0000 7047     		bx	lr
 19475              	.LFE72:
 19477              		.section	.text.USART1_IRQHandler,"ax",%progbits
 19478              		.align	1
 19479              		.global	USART1_IRQHandler
 19480              		.thumb
 19481              		.thumb_func
 19483              	USART1_IRQHandler:
 19484              	.LFB73:
 518:stm32f10x_it.c **** 
 519:stm32f10x_it.c **** /*******************************************************************************
 520:stm32f10x_it.c **** * Function Name  : USART1_IRQHandler
 521:stm32f10x_it.c **** * Description    : This function handles USART1 global interrupt request.
 522:stm32f10x_it.c **** * Input          : None
 523:stm32f10x_it.c **** * Output         : None
 524:stm32f10x_it.c **** * Return         : None
 525:stm32f10x_it.c **** *******************************************************************************/
 526:stm32f10x_it.c **** void USART1_IRQHandler(void) {
 19485              		.loc 1 527 0
 19486              		@ args = 0, pretend = 0, frame = 0
 19487              		@ frame_needed = 0, uses_anonymous_args = 0
 19488 0000 08B5     		push	{r3, lr}
 19489              	.LCFI0:
 527:stm32f10x_it.c **** 	 if(USART_GetITStatus(USART1, USART_IT_RXNE) != RESET) {
 19490              		.loc 1 528 0
 19491 0002 0A48     		ldr	r0, .L60
 19492 0004 40F22551 		movw	r1, #1317
 19493 0008 FFF7FEFF 		bl	USART_GetITStatus
 19494 000c 28B1     		cbz	r0, .L58
 528:stm32f10x_it.c **** 		 USART1_IT_RxReady_exec(USART_ReceiveData(USART1));
 19495              		.loc 1 529 0
 19496 000e 0748     		ldr	r0, .L60
 19497 0010 FFF7FEFF 		bl	USART_ReceiveData
 19498 0014 C0B2     		uxtb	r0, r0
 19499 0016 FFF7FEFF 		bl	USART1_IT_RxReady_exec
 19500              	.L58:
 529:stm32f10x_it.c **** 	 }
 530:stm32f10x_it.c **** 	 if(USART_GetITStatus(USART1, USART_IT_TXE) != RESET) {
 19501              		.loc 1 531 0
 19502 001a 0448     		ldr	r0, .L60
 19503 001c 40F22771 		movw	r1, #1831
 19504 0020 FFF7FEFF 		bl	USART_GetITStatus
 19505 0024 08B1     		cbz	r0, .L57
 531:stm32f10x_it.c **** 		 USART1_IT_TxReady_exec();
 19506              		.loc 1 532 0
 19507 0026 FFF7FEFF 		bl	USART1_IT_TxReady_exec
 19508              	.L57:
 532:stm32f10x_it.c **** 	 }
 533:stm32f10x_it.c **** }
 19509              		.loc 1 534 0
 19510 002a 08BD     		pop	{r3, pc}
 19511              	.L61:
 19512              		.align	2
 19513              	.L60:
 19514 002c 00380140 		.word	1073821696
 19515              	.LFE73:
 19517              		.section	.text.USART2_IRQHandler,"ax",%progbits
 19518              		.align	1
 19519              		.global	USART2_IRQHandler
 19520              		.thumb
 19521              		.thumb_func
 19523              	USART2_IRQHandler:
 19524              	.LFB74:
 534:stm32f10x_it.c **** 
 535:stm32f10x_it.c **** /*******************************************************************************
 536:stm32f10x_it.c **** * Function Name  : USART2_IRQHandler
 537:stm32f10x_it.c **** * Description    : This function handles USART2 global interrupt request.
 538:stm32f10x_it.c **** * Input          : None
 539:stm32f10x_it.c **** * Output         : None
 540:stm32f10x_it.c **** * Return         : None
 541:stm32f10x_it.c **** *******************************************************************************/
 542:stm32f10x_it.c **** void USART2_IRQHandler(void) {
 19525              		.loc 1 543 0
 19526              		@ args = 0, pretend = 0, frame = 0
 19527              		@ frame_needed = 0, uses_anonymous_args = 0
 19528              		@ link register save eliminated.
 543:stm32f10x_it.c **** #ifdef USART2_ENABLE
 544:stm32f10x_it.c **** 	 if(USART_GetITStatus(USART2, USART_IT_RXNE) != RESET) {
 545:stm32f10x_it.c **** 		USART2_IT_RxReady_exec(USART_ReceiveData(USART2));
 546:stm32f10x_it.c **** 	 }
 547:stm32f10x_it.c **** 	 if(USART_GetITStatus(USART2, USART_IT_TXE) != RESET) {
 548:stm32f10x_it.c **** 		 USART2_IT_TxReady_exec();
 549:stm32f10x_it.c **** 	 }
 550:stm32f10x_it.c **** #endif
 551:stm32f10x_it.c **** }
 19529              		.loc 1 552 0
 19530 0000 7047     		bx	lr
 19531              	.LFE74:
 19533              		.section	.text.USART3_IRQHandler,"ax",%progbits
 19534              		.align	1
 19535              		.global	USART3_IRQHandler
 19536              		.thumb
 19537              		.thumb_func
 19539              	USART3_IRQHandler:
 19540              	.LFB75:
 552:stm32f10x_it.c **** 
 553:stm32f10x_it.c **** /*******************************************************************************
 554:stm32f10x_it.c **** * Function Name  : USART3_IRQHandler
 555:stm32f10x_it.c **** * Description    : This function handles USART3 global interrupt request.
 556:stm32f10x_it.c **** * Input          : None
 557:stm32f10x_it.c **** * Output         : None
 558:stm32f10x_it.c **** * Return         : None
 559:stm32f10x_it.c **** *******************************************************************************/
 560:stm32f10x_it.c **** void USART3_IRQHandler(void)
 561:stm32f10x_it.c **** {}
 19541              		.loc 1 562 0
 19542              		@ args = 0, pretend = 0, frame = 0
 19543              		@ frame_needed = 0, uses_anonymous_args = 0
 19544              		@ link register save eliminated.
 19545              		.loc 1 562 0
 19546 0000 7047     		bx	lr
 19547              	.LFE75:
 19549              		.section	.text.EXTI15_10_IRQHandler,"ax",%progbits
 19550              		.align	1
 19551              		.global	EXTI15_10_IRQHandler
 19552              		.thumb
 19553              		.thumb_func
 19555              	EXTI15_10_IRQHandler:
 19556              	.LFB76:
 562:stm32f10x_it.c **** 
 563:stm32f10x_it.c **** /*******************************************************************************
 564:stm32f10x_it.c **** * Function Name  : EXTI15_10_IRQHandler
 565:stm32f10x_it.c **** * Description    : This function handles External lines 15 to 10 interrupt request.
 566:stm32f10x_it.c **** * Input          : None
 567:stm32f10x_it.c **** * Output         : None
 568:stm32f10x_it.c **** * Return         : None
 569:stm32f10x_it.c **** *******************************************************************************/
 570:stm32f10x_it.c **** void EXTI15_10_IRQHandler(void)
 571:stm32f10x_it.c **** {}
 19557              		.loc 1 572 0
 19558              		@ args = 0, pretend = 0, frame = 0
 19559              		@ frame_needed = 0, uses_anonymous_args = 0
 19560              		@ link register save eliminated.
 19561              		.loc 1 572 0
 19562 0000 7047     		bx	lr
 19563              	.LFE76:
 19565              		.section	.text.RTCAlarm_IRQHandler,"ax",%progbits
 19566              		.align	1
 19567              		.global	RTCAlarm_IRQHandler
 19568              		.thumb
 19569              		.thumb_func
 19571              	RTCAlarm_IRQHandler:
 19572              	.LFB77:
 572:stm32f10x_it.c **** 
 573:stm32f10x_it.c **** /*******************************************************************************
 574:stm32f10x_it.c **** * Function Name  : RTCAlarm_IRQHandler
 575:stm32f10x_it.c **** * Description    : This function handles RTC Alarm interrupt request.
 576:stm32f10x_it.c **** * Input          : None
 577:stm32f10x_it.c **** * Output         : None
 578:stm32f10x_it.c **** * Return         : None
 579:stm32f10x_it.c **** *******************************************************************************/
 580:stm32f10x_it.c **** void RTCAlarm_IRQHandler(void)
 581:stm32f10x_it.c **** {}
 19573              		.loc 1 582 0
 19574              		@ args = 0, pretend = 0, frame = 0
 19575              		@ frame_needed = 0, uses_anonymous_args = 0
 19576              		@ link register save eliminated.
 19577              		.loc 1 582 0
 19578 0000 7047     		bx	lr
 19579              	.LFE77:
 19581              		.section	.text.USBWakeUp_IRQHandler,"ax",%progbits
 19582              		.align	1
 19583              		.global	USBWakeUp_IRQHandler
 19584              		.thumb
 19585              		.thumb_func
 19587              	USBWakeUp_IRQHandler:
 19588              	.LFB78:
 582:stm32f10x_it.c **** 
 583:stm32f10x_it.c **** /*******************************************************************************
 584:stm32f10x_it.c **** * Function Name  : USBWakeUp_IRQHandler
 585:stm32f10x_it.c **** * Description    : This function handles USB WakeUp interrupt request.
 586:stm32f10x_it.c **** * Input          : None
 587:stm32f10x_it.c **** * Output         : None
 588:stm32f10x_it.c **** * Return         : None
 589:stm32f10x_it.c **** *******************************************************************************/
 590:stm32f10x_it.c **** void USBWakeUp_IRQHandler(void)
 591:stm32f10x_it.c **** {}
 19589              		.loc 1 592 0
 19590              		@ args = 0, pretend = 0, frame = 0
 19591              		@ frame_needed = 0, uses_anonymous_args = 0
 19592              		@ link register save eliminated.
 19593              		.loc 1 592 0
 19594 0000 7047     		bx	lr
 19595              	.LFE78:
 19597              		.section	.text.TIM8_BRK_IRQHandler,"ax",%progbits
 19598              		.align	1
 19599              		.global	TIM8_BRK_IRQHandler
 19600              		.thumb
 19601              		.thumb_func
 19603              	TIM8_BRK_IRQHandler:
 19604              	.LFB79:
 592:stm32f10x_it.c **** /*******************************************************************************
 593:stm32f10x_it.c **** * Function Name  : TIM8_BRK_IRQHandler
 594:stm32f10x_it.c **** * Description    : This function handles TIM8 Break interrupt request.
 595:stm32f10x_it.c **** * Input          : None
 596:stm32f10x_it.c **** * Output         : None
 597:stm32f10x_it.c **** * Return         : None
 598:stm32f10x_it.c **** *******************************************************************************/
 599:stm32f10x_it.c **** void TIM8_BRK_IRQHandler(void)
 600:stm32f10x_it.c **** {}
 19605              		.loc 1 601 0
 19606              		@ args = 0, pretend = 0, frame = 0
 19607              		@ frame_needed = 0, uses_anonymous_args = 0
 19608              		@ link register save eliminated.
 19609              		.loc 1 601 0
 19610 0000 7047     		bx	lr
 19611              	.LFE79:
 19613              		.section	.text.TIM8_UP_IRQHandler,"ax",%progbits
 19614              		.align	1
 19615              		.global	TIM8_UP_IRQHandler
 19616              		.thumb
 19617              		.thumb_func
 19619              	TIM8_UP_IRQHandler:
 19620              	.LFB80:
 601:stm32f10x_it.c **** 
 602:stm32f10x_it.c **** /*******************************************************************************
 603:stm32f10x_it.c **** * Function Name  : TIM8_UP_IRQHandler
 604:stm32f10x_it.c **** * Description    : This function handles TIM8 overflow and update interrupt
 605:stm32f10x_it.c **** *                  request.
 606:stm32f10x_it.c **** * Input          : None
 607:stm32f10x_it.c **** * Output         : None
 608:stm32f10x_it.c **** * Return         : None
 609:stm32f10x_it.c **** *******************************************************************************/
 610:stm32f10x_it.c **** void TIM8_UP_IRQHandler(void)
 611:stm32f10x_it.c **** {}
 19621              		.loc 1 612 0
 19622              		@ args = 0, pretend = 0, frame = 0
 19623              		@ frame_needed = 0, uses_anonymous_args = 0
 19624              		@ link register save eliminated.
 19625              		.loc 1 612 0
 19626 0000 7047     		bx	lr
 19627              	.LFE80:
 19629              		.section	.text.TIM8_TRG_COM_IRQHandler,"ax",%progbits
 19630              		.align	1
 19631              		.global	TIM8_TRG_COM_IRQHandler
 19632              		.thumb
 19633              		.thumb_func
 19635              	TIM8_TRG_COM_IRQHandler:
 19636              	.LFB81:
 612:stm32f10x_it.c **** 
 613:stm32f10x_it.c **** /*******************************************************************************
 614:stm32f10x_it.c **** * Function Name  : TIM8_TRG_COM_IRQHandler
 615:stm32f10x_it.c **** * Description    : This function handles TIM8 Trigger and commutation interrupts
 616:stm32f10x_it.c **** *                  requests.
 617:stm32f10x_it.c **** * Input          : None
 618:stm32f10x_it.c **** * Output         : None
 619:stm32f10x_it.c **** * Return         : None
 620:stm32f10x_it.c **** *******************************************************************************/
 621:stm32f10x_it.c **** void TIM8_TRG_COM_IRQHandler(void)
 622:stm32f10x_it.c **** {}
 19637              		.loc 1 623 0
 19638              		@ args = 0, pretend = 0, frame = 0
 19639              		@ frame_needed = 0, uses_anonymous_args = 0
 19640              		@ link register save eliminated.
 19641              		.loc 1 623 0
 19642 0000 7047     		bx	lr
 19643              	.LFE81:
 19645              		.section	.text.TIM8_CC_IRQHandler,"ax",%progbits
 19646              		.align	1
 19647              		.global	TIM8_CC_IRQHandler
 19648              		.thumb
 19649              		.thumb_func
 19651              	TIM8_CC_IRQHandler:
 19652              	.LFB82:
 623:stm32f10x_it.c **** 
 624:stm32f10x_it.c **** /*******************************************************************************
 625:stm32f10x_it.c **** * Function Name  : TIM8_CC_IRQHandler
 626:stm32f10x_it.c **** * Description    : This function handles TIM8 capture compare interrupt request.
 627:stm32f10x_it.c **** * Input          : None
 628:stm32f10x_it.c **** * Output         : None
 629:stm32f10x_it.c **** * Return         : None
 630:stm32f10x_it.c **** *******************************************************************************/
 631:stm32f10x_it.c **** void TIM8_CC_IRQHandler(void)
 632:stm32f10x_it.c **** {}
 19653              		.loc 1 633 0
 19654              		@ args = 0, pretend = 0, frame = 0
 19655              		@ frame_needed = 0, uses_anonymous_args = 0
 19656              		@ link register save eliminated.
 19657              		.loc 1 633 0
 19658 0000 7047     		bx	lr
 19659              	.LFE82:
 19661              		.section	.text.ADC3_IRQHandler,"ax",%progbits
 19662              		.align	1
 19663              		.global	ADC3_IRQHandler
 19664              		.thumb
 19665              		.thumb_func
 19667              	ADC3_IRQHandler:
 19668              	.LFB83:
 633:stm32f10x_it.c **** 
 634:stm32f10x_it.c **** /*******************************************************************************
 635:stm32f10x_it.c **** * Function Name  : ADC3_IRQHandler
 636:stm32f10x_it.c **** * Description    : This function handles ADC3 global interrupt request.
 637:stm32f10x_it.c **** * Input          : None
 638:stm32f10x_it.c **** * Output         : None
 639:stm32f10x_it.c **** * Return         : None
 640:stm32f10x_it.c **** *******************************************************************************/
 641:stm32f10x_it.c **** void ADC3_IRQHandler(void)
 642:stm32f10x_it.c **** {}
 19669              		.loc 1 643 0
 19670              		@ args = 0, pretend = 0, frame = 0
 19671              		@ frame_needed = 0, uses_anonymous_args = 0
 19672              		@ link register save eliminated.
 19673              		.loc 1 643 0
 19674 0000 7047     		bx	lr
 19675              	.LFE83:
 19677              		.section	.text.FSMC_IRQHandler,"ax",%progbits
 19678              		.align	1
 19679              		.global	FSMC_IRQHandler
 19680              		.thumb
 19681              		.thumb_func
 19683              	FSMC_IRQHandler:
 19684              	.LFB84:
 643:stm32f10x_it.c **** 
 644:stm32f10x_it.c **** /*******************************************************************************
 645:stm32f10x_it.c **** * Function Name  : FSMC_IRQHandler
 646:stm32f10x_it.c **** * Description    : This function handles FSMC global interrupt request.
 647:stm32f10x_it.c **** * Input          : None
 648:stm32f10x_it.c **** * Output         : None
 649:stm32f10x_it.c **** * Return         : None
 650:stm32f10x_it.c **** *******************************************************************************/
 651:stm32f10x_it.c **** void FSMC_IRQHandler(void)
 652:stm32f10x_it.c **** {}
 19685              		.loc 1 653 0
 19686              		@ args = 0, pretend = 0, frame = 0
 19687              		@ frame_needed = 0, uses_anonymous_args = 0
 19688              		@ link register save eliminated.
 19689              		.loc 1 653 0
 19690 0000 7047     		bx	lr
 19691              	.LFE84:
 19693              		.section	.text.SDIO_IRQHandler,"ax",%progbits
 19694              		.align	1
 19695              		.global	SDIO_IRQHandler
 19696              		.thumb
 19697              		.thumb_func
 19699              	SDIO_IRQHandler:
 19700              	.LFB85:
 653:stm32f10x_it.c **** 
 654:stm32f10x_it.c **** /*******************************************************************************
 655:stm32f10x_it.c **** * Function Name  : SDIO_IRQHandler
 656:stm32f10x_it.c **** * Description    : This function handles SDIO global interrupt request.
 657:stm32f10x_it.c **** * Input          : None
 658:stm32f10x_it.c **** * Output         : None
 659:stm32f10x_it.c **** * Return         : None
 660:stm32f10x_it.c **** *******************************************************************************/
 661:stm32f10x_it.c **** //    sdio.cpp
 662:stm32f10x_it.c **** 
 663:stm32f10x_it.c **** void SDIO_IRQHandler(void)
 664:stm32f10x_it.c **** {
 19701              		.loc 1 665 0
 19702              		@ args = 0, pretend = 0, frame = 0
 19703              		@ frame_needed = 0, uses_anonymous_args = 0
 19704              		@ link register save eliminated.
 665:stm32f10x_it.c **** 
 666:stm32f10x_it.c **** }
 19705              		.loc 1 667 0
 19706 0000 7047     		bx	lr
 19707              	.LFE85:
 19709              		.section	.text.TIM5_IRQHandler,"ax",%progbits
 19710              		.align	1
 19711              		.global	TIM5_IRQHandler
 19712              		.thumb
 19713              		.thumb_func
 19715              	TIM5_IRQHandler:
 19716              	.LFB86:
 667:stm32f10x_it.c **** /*******************************************************************************
 668:stm32f10x_it.c **** * Function Name  : TIM5_IRQHandler
 669:stm32f10x_it.c **** * Description    : This function handles TIM5 global interrupt request.
 670:stm32f10x_it.c **** * Input          : None
 671:stm32f10x_it.c **** * Output         : None
 672:stm32f10x_it.c **** * Return         : None
 673:stm32f10x_it.c **** *******************************************************************************/
 674:stm32f10x_it.c **** void TIM5_IRQHandler(void)
 675:stm32f10x_it.c **** {}
 19717              		.loc 1 676 0
 19718              		@ args = 0, pretend = 0, frame = 0
 19719              		@ frame_needed = 0, uses_anonymous_args = 0
 19720              		@ link register save eliminated.
 19721              		.loc 1 676 0
 19722 0000 7047     		bx	lr
 19723              	.LFE86:
 19725              		.section	.text.SPI3_IRQHandler,"ax",%progbits
 19726              		.align	1
 19727              		.global	SPI3_IRQHandler
 19728              		.thumb
 19729              		.thumb_func
 19731              	SPI3_IRQHandler:
 19732              	.LFB87:
 676:stm32f10x_it.c **** 
 677:stm32f10x_it.c **** /*******************************************************************************
 678:stm32f10x_it.c **** * Function Name  : SPI3_IRQHandler
 679:stm32f10x_it.c **** * Description    : This function handles SPI3 global interrupt request.
 680:stm32f10x_it.c **** * Input          : None
 681:stm32f10x_it.c **** * Output         : None
 682:stm32f10x_it.c **** * Return         : None
 683:stm32f10x_it.c **** *******************************************************************************/
 684:stm32f10x_it.c **** void SPI3_IRQHandler(void)
 685:stm32f10x_it.c **** {}
 19733              		.loc 1 686 0
 19734              		@ args = 0, pretend = 0, frame = 0
 19735              		@ frame_needed = 0, uses_anonymous_args = 0
 19736              		@ link register save eliminated.
 19737              		.loc 1 686 0
 19738 0000 7047     		bx	lr
 19739              	.LFE87:
 19741              		.section	.text.UART4_IRQHandler,"ax",%progbits
 19742              		.align	1
 19743              		.global	UART4_IRQHandler
 19744              		.thumb
 19745              		.thumb_func
 19747              	UART4_IRQHandler:
 19748              	.LFB88:
 686:stm32f10x_it.c **** 
 687:stm32f10x_it.c **** /*******************************************************************************
 688:stm32f10x_it.c **** * Function Name  : UART4_IRQHandler
 689:stm32f10x_it.c **** * Description    : This function handles UART4 global interrupt request.
 690:stm32f10x_it.c **** * Input          : None
 691:stm32f10x_it.c **** * Output         : None
 692:stm32f10x_it.c **** * Return         : None
 693:stm32f10x_it.c **** *******************************************************************************/
 694:stm32f10x_it.c **** void UART4_IRQHandler(void)
 695:stm32f10x_it.c **** {}
 19749              		.loc 1 696 0
 19750              		@ args = 0, pretend = 0, frame = 0
 19751              		@ frame_needed = 0, uses_anonymous_args = 0
 19752              		@ link register save eliminated.
 19753              		.loc 1 696 0
 19754 0000 7047     		bx	lr
 19755              	.LFE88:
 19757              		.section	.text.UART5_IRQHandler,"ax",%progbits
 19758              		.align	1
 19759              		.global	UART5_IRQHandler
 19760              		.thumb
 19761              		.thumb_func
 19763              	UART5_IRQHandler:
 19764              	.LFB89:
 696:stm32f10x_it.c **** 
 697:stm32f10x_it.c **** /*******************************************************************************
 698:stm32f10x_it.c **** * Function Name  : UART5_IRQHandler
 699:stm32f10x_it.c **** * Description    : This function handles UART5 global interrupt request.
 700:stm32f10x_it.c **** * Input          : None
 701:stm32f10x_it.c **** * Output         : None
 702:stm32f10x_it.c **** * Return         : None
 703:stm32f10x_it.c **** *******************************************************************************/
 704:stm32f10x_it.c **** void UART5_IRQHandler(void)
 705:stm32f10x_it.c **** {}
 19765              		.loc 1 706 0
 19766              		@ args = 0, pretend = 0, frame = 0
 19767              		@ frame_needed = 0, uses_anonymous_args = 0
 19768              		@ link register save eliminated.
 19769              		.loc 1 706 0
 19770 0000 7047     		bx	lr
 19771              	.LFE89:
 19773              		.section	.text.TIM6_IRQHandler,"ax",%progbits
 19774              		.align	1
 19775              		.global	TIM6_IRQHandler
 19776              		.thumb
 19777              		.thumb_func
 19779              	TIM6_IRQHandler:
 19780              	.LFB90:
 706:stm32f10x_it.c **** 
 707:stm32f10x_it.c **** /*******************************************************************************
 708:stm32f10x_it.c **** * Function Name  : TIM6_IRQHandler
 709:stm32f10x_it.c **** * Description    : This function handles TIM6 global interrupt request.
 710:stm32f10x_it.c **** * Input          : None
 711:stm32f10x_it.c **** * Output         : None
 712:stm32f10x_it.c **** * Return         : None
 713:stm32f10x_it.c **** *******************************************************************************/
 714:stm32f10x_it.c **** void TIM6_IRQHandler(void)
 715:stm32f10x_it.c **** {}
 19781              		.loc 1 716 0
 19782              		@ args = 0, pretend = 0, frame = 0
 19783              		@ frame_needed = 0, uses_anonymous_args = 0
 19784              		@ link register save eliminated.
 19785              		.loc 1 716 0
 19786 0000 7047     		bx	lr
 19787              	.LFE90:
 19789              		.section	.text.TIM7_IRQHandler,"ax",%progbits
 19790              		.align	1
 19791              		.global	TIM7_IRQHandler
 19792              		.thumb
 19793              		.thumb_func
 19795              	TIM7_IRQHandler:
 19796              	.LFB91:
 716:stm32f10x_it.c **** 
 717:stm32f10x_it.c **** /*******************************************************************************
 718:stm32f10x_it.c **** * Function Name  : TIM7_IRQHandler
 719:stm32f10x_it.c **** * Description    : This function handles TIM7 global interrupt request.
 720:stm32f10x_it.c **** * Input          : None
 721:stm32f10x_it.c **** * Output         : None
 722:stm32f10x_it.c **** * Return         : None
 723:stm32f10x_it.c **** *******************************************************************************/
 724:stm32f10x_it.c **** void TIM7_IRQHandler(void)
 725:stm32f10x_it.c **** {}
 19797              		.loc 1 726 0
 19798              		@ args = 0, pretend = 0, frame = 0
 19799              		@ frame_needed = 0, uses_anonymous_args = 0
 19800              		@ link register save eliminated.
 19801              		.loc 1 726 0
 19802 0000 7047     		bx	lr
 19803              	.LFE91:
 19805              		.section	.text.DMA2_Channel1_IRQHandler,"ax",%progbits
 19806              		.align	1
 19807              		.global	DMA2_Channel1_IRQHandler
 19808              		.thumb
 19809              		.thumb_func
 19811              	DMA2_Channel1_IRQHandler:
 19812              	.LFB92:
 726:stm32f10x_it.c **** 
 727:stm32f10x_it.c **** /*******************************************************************************
 728:stm32f10x_it.c **** * Function Name  : DMA2_Channel1_IRQHandler
 729:stm32f10x_it.c **** * Description    : This function handles DMA2 Channel 1 interrupt request.
 730:stm32f10x_it.c **** * Input          : None
 731:stm32f10x_it.c **** * Output         : None
 732:stm32f10x_it.c **** * Return         : None
 733:stm32f10x_it.c **** *******************************************************************************/
 734:stm32f10x_it.c **** void DMA2_Channel1_IRQHandler(void)
 735:stm32f10x_it.c **** {}
 19813              		.loc 1 736 0
 19814              		@ args = 0, pretend = 0, frame = 0
 19815              		@ frame_needed = 0, uses_anonymous_args = 0
 19816              		@ link register save eliminated.
 19817              		.loc 1 736 0
 19818 0000 7047     		bx	lr
 19819              	.LFE92:
 19821              		.section	.text.DMA2_Channel2_IRQHandler,"ax",%progbits
 19822              		.align	1
 19823              		.global	DMA2_Channel2_IRQHandler
 19824              		.thumb
 19825              		.thumb_func
 19827              	DMA2_Channel2_IRQHandler:
 19828              	.LFB93:
 736:stm32f10x_it.c **** 
 737:stm32f10x_it.c **** /*******************************************************************************
 738:stm32f10x_it.c **** * Function Name  : DMA2_Channel2_IRQHandler
 739:stm32f10x_it.c **** * Description    : This function handles DMA2 Channel 2 interrupt request.
 740:stm32f10x_it.c **** * Input          : None
 741:stm32f10x_it.c **** * Output         : None
 742:stm32f10x_it.c **** * Return         : None
 743:stm32f10x_it.c **** *******************************************************************************/
 744:stm32f10x_it.c **** void DMA2_Channel2_IRQHandler(void)
 745:stm32f10x_it.c **** {}
 19829              		.loc 1 746 0
 19830              		@ args = 0, pretend = 0, frame = 0
 19831              		@ frame_needed = 0, uses_anonymous_args = 0
 19832              		@ link register save eliminated.
 19833              		.loc 1 746 0
 19834 0000 7047     		bx	lr
 19835              	.LFE93:
 19837              		.section	.text.DMA2_Channel3_IRQHandler,"ax",%progbits
 19838              		.align	1
 19839              		.global	DMA2_Channel3_IRQHandler
 19840              		.thumb
 19841              		.thumb_func
 19843              	DMA2_Channel3_IRQHandler:
 19844              	.LFB94:
 746:stm32f10x_it.c **** 
 747:stm32f10x_it.c **** /*******************************************************************************
 748:stm32f10x_it.c **** * Function Name  : DMA2_Channel3_IRQHandler
 749:stm32f10x_it.c **** * Description    : This function handles DMA2 Channel 3 interrupt request.
 750:stm32f10x_it.c **** * Input          : None
 751:stm32f10x_it.c **** * Output         : None
 752:stm32f10x_it.c **** * Return         : None
 753:stm32f10x_it.c **** *******************************************************************************/
 754:stm32f10x_it.c **** void DMA2_Channel3_IRQHandler(void)
 755:stm32f10x_it.c **** {}
 19845              		.loc 1 756 0
 19846              		@ args = 0, pretend = 0, frame = 0
 19847              		@ frame_needed = 0, uses_anonymous_args = 0
 19848              		@ link register save eliminated.
 19849              		.loc 1 756 0
 19850 0000 7047     		bx	lr
 19851              	.LFE94:
 19853              		.section	.text.DMA2_Channel4_5_IRQHandler,"ax",%progbits
 19854              		.align	1
 19855              		.global	DMA2_Channel4_5_IRQHandler
 19856              		.thumb
 19857              		.thumb_func
 19859              	DMA2_Channel4_5_IRQHandler:
 19860              	.LFB95:
 756:stm32f10x_it.c **** 
 757:stm32f10x_it.c **** /*******************************************************************************
 758:stm32f10x_it.c **** * Function Name  : DMA2_Channel4_5_IRQHandler
 759:stm32f10x_it.c **** * Description    : This function handles DMA2 Channel 4 and DMA2 Channel 5
 760:stm32f10x_it.c **** *                  interrupt request.
 761:stm32f10x_it.c **** * Input          : None
 762:stm32f10x_it.c **** * Output         : None
 763:stm32f10x_it.c **** * Return         : None
 764:stm32f10x_it.c **** *******************************************************************************/
 765:stm32f10x_it.c **** void DMA2_Channel4_5_IRQHandler(void)
 766:stm32f10x_it.c **** {}
 19861              		.loc 1 767 0
 19862              		@ args = 0, pretend = 0, frame = 0
 19863              		@ frame_needed = 0, uses_anonymous_args = 0
 19864              		@ link register save eliminated.
 19865              		.loc 1 767 0
 19866 0000 7047     		bx	lr
 19867              	.LFE95:
 19869              		.global	_sysTicks
 19870              		.section	.bss.flip.3242,"aw",%nobits
 19871              		.set	.LANCHOR1,. + 0
 19874              	flip.3242:
 19875 0000 00       		.space	1
 19876              		.section	.bss._sysTicks,"aw",%nobits
 19877              		.align	2
 19878              		.set	.LANCHOR0,. + 0
 19881              	_sysTicks:
 19882 0000 00000000 		.space	4
 20459              	.Letext0: